target datalayout = "e-m:e-p270:32:32-p271:32:32-p272:64:64-i64:64-i128:128-f80:128-n8:16:32:64-S128"
target triple = "x86_64-pc-linux-gnu"

%struct.spki2typespki_ctx_st = type { ptr, [256 x i8] }

@.str.7 = private unnamed_addr constant [11 x i8] c"properties\00", align 1

; Function Attrs: nounwind uwtable
define internal i32 @spki2typespki_set_ctx_params(ptr noundef %0, ptr noundef %1) #0 {
  %3 = alloca i32, align 4
  %4 = alloca ptr, align 8
  %5 = alloca ptr, align 8
  %6 = alloca ptr, align 8
  %7 = alloca ptr, align 8
  %8 = alloca ptr, align 8
  %9 = alloca i32, align 4
  store ptr %0, ptr %4, align 8, !tbaa !3
  store ptr %1, ptr %5, align 8, !tbaa !22
  call void @llvm.lifetime.start.p0(i64 8, ptr %6) #5
  %10 = load ptr, ptr %4, align 8, !tbaa !3
  store ptr %10, ptr %6, align 8, !tbaa !7
  call void @llvm.lifetime.start.p0(i64 8, ptr %7) #5
  call void @llvm.lifetime.start.p0(i64 8, ptr %8) #5
  %11 = load ptr, ptr %6, align 8, !tbaa !7
  %12 = getelementptr inbounds nuw %struct.spki2typespki_ctx_st, ptr %11, i32 0, i32 1
  %13 = getelementptr inbounds [256 x i8], ptr %12, i64 0, i64 0
  store ptr %13, ptr %8, align 8, !tbaa !24
  %14 = load ptr, ptr %5, align 8, !tbaa !22
  %15 = call ptr @OSSL_PARAM_locate_const(ptr noundef %14, ptr noundef @.str.7)
  store ptr %15, ptr %7, align 8, !tbaa !22
  %16 = load ptr, ptr %7, align 8, !tbaa !22
  %17 = icmp ne ptr %16, null
  br i1 %17, label %18, label %23

18:                                               ; preds = %2
  %19 = load ptr, ptr %7, align 8, !tbaa !22
  %20 = call i32 @OSSL_PARAM_get_utf8_string(ptr noundef %19, ptr noundef %8, i64 noundef 256)
  %21 = icmp ne i32 %20, 0
  br i1 %21, label %23, label %22

22:                                               ; preds = %18
  store i32 0, ptr %3, align 4
  store i32 1, ptr %9, align 4
  br label %24

23:                                               ; preds = %18, %2
  store i32 1, ptr %3, align 4
  store i32 1, ptr %9, align 4
  br label %24

24:                                               ; preds = %23, %22
  call void @llvm.lifetime.end.p0(i64 8, ptr %8) #5
  call void @llvm.lifetime.end.p0(i64 8, ptr %7) #5
  call void @llvm.lifetime.end.p0(i64 8, ptr %6) #5
  %25 = load i32, ptr %3, align 4
  ret i32 %25
}